; Function Attrs: mustprogress nofree norecurse nosync nounwind memory(read, argmem: readwrite, inaccessiblemem: none) uwtable
define internal fastcc noundef zeroext i1 @_ZN4absl18debugging_internal12_GLOBAL__N_116RustSymbolParser19ParseOptionalBinderEv(ptr noundef nonnull align 8 captures(none) dereferenceable(432) %0) unnamed_addr #2 align 2 {
  %2 = getelementptr inbounds nuw i8, ptr %0, i64 408
  %3 = load ptr, ptr %2, align 8, !tbaa !4
  %4 = getelementptr inbounds nuw i8, ptr %0, i64 400
  %5 = load i32, ptr %4, align 8, !tbaa !17
  %6 = sext i32 %5 to i64
  %7 = getelementptr inbounds i8, ptr %3, i64 %6
  %8 = load i8, ptr %7, align 1, !tbaa !13
  %.not.i = icmp eq i8 %8, 71
  br i1 %.not.i, label %9, label %_ZN4absl18debugging_internal12_GLOBAL__N_116RustSymbolParser3EatEc.exit

9:                                                ; preds = %1
  %10 = add nsw i32 %5, 1
  store i32 %10, ptr %4, align 8, !tbaa !17
  %11 = sext i32 %10 to i64
  %12 = getelementptr inbounds i8, ptr %3, i64 %11
  %13 = load i8, ptr %12, align 1, !tbaa !13
  %.not.i.i = icmp eq i8 %13, 95
  br i1 %.not.i.i, label %19, label %_ZN4absl18debugging_internal12_GLOBAL__N_116RustSymbolParser3EatEc.exit.preheader.i

_ZN4absl18debugging_internal12_GLOBAL__N_116RustSymbolParser3EatEc.exit.preheader.i: ; preds = %9
  %14 = and i8 %13, -33
  %15 = add i8 %14, -65
  %16 = icmp ult i8 %15, 26
  %17 = add i8 %13, -48
  %18 = icmp ult i8 %17, 10
  %or.cond25.i = or i1 %18, %16
  br i1 %or.cond25.i, label %.critedge.i, label %_ZN4absl18debugging_internal12_GLOBAL__N_116RustSymbolParser3EatEc.exit

19:                                               ; preds = %9
  %20 = add nsw i32 %5, 2
  br label %_ZN4absl18debugging_internal12_GLOBAL__N_116RustSymbolParser3EatEc.exit.sink.split

.critedge.i:                                      ; preds = %_ZN4absl18debugging_internal12_GLOBAL__N_116RustSymbolParser3EatEc.exit.preheader.i, %.critedge.i
  %indvars.iv.i = phi i64 [ %indvars.iv.next.i, %.critedge.i ], [ %11, %_ZN4absl18debugging_internal12_GLOBAL__N_116RustSymbolParser3EatEc.exit.preheader.i ]
  %indvars.iv.next.i = add nsw i64 %indvars.iv.i, 1
  %21 = trunc nsw i64 %indvars.iv.next.i to i32
  store i32 %21, ptr %4, align 8, !tbaa !17
  %22 = getelementptr inbounds i8, ptr %3, i64 %indvars.iv.next.i
  %23 = load i8, ptr %22, align 1, !tbaa !13
  %24 = and i8 %23, -33
  %25 = add i8 %24, -65
  %26 = icmp ult i8 %25, 26
  %27 = add i8 %23, -48
  %28 = icmp ult i8 %27, 10
  %or.cond.i = or i1 %28, %26
  br i1 %or.cond.i, label %.critedge.i, label %_ZN4absl18debugging_internal12_GLOBAL__N_116RustSymbolParser3EatEc.exit._crit_edge.i, !llvm.loop !19

_ZN4absl18debugging_internal12_GLOBAL__N_116RustSymbolParser3EatEc.exit._crit_edge.i: ; preds = %.critedge.i
  %29 = icmp eq i8 %23, 95
  br i1 %29, label %30, label %_ZN4absl18debugging_internal12_GLOBAL__N_116RustSymbolParser3EatEc.exit

30:                                               ; preds = %_ZN4absl18debugging_internal12_GLOBAL__N_116RustSymbolParser3EatEc.exit._crit_edge.i
  %31 = add nsw i32 %21, 1
  br label %_ZN4absl18debugging_internal12_GLOBAL__N_116RustSymbolParser3EatEc.exit.sink.split

_ZN4absl18debugging_internal12_GLOBAL__N_116RustSymbolParser3EatEc.exit.sink.split: ; preds = %19, %30
  %.sink = phi i32 [ %31, %30 ], [ %20, %19 ]
  store i32 %.sink, ptr %4, align 8, !tbaa !17
  br label %_ZN4absl18debugging_internal12_GLOBAL__N_116RustSymbolParser3EatEc.exit

_ZN4absl18debugging_internal12_GLOBAL__N_116RustSymbolParser3EatEc.exit: ; preds = %_ZN4absl18debugging_internal12_GLOBAL__N_116RustSymbolParser3EatEc.exit.sink.split, %_ZN4absl18debugging_internal12_GLOBAL__N_116RustSymbolParser3EatEc.exit._crit_edge.i, %_ZN4absl18debugging_internal12_GLOBAL__N_116RustSymbolParser3EatEc.exit.preheader.i, %1
  %.0 = phi i1 [ true, %1 ], [ false, %_ZN4absl18debugging_internal12_GLOBAL__N_116RustSymbolParser3EatEc.exit._crit_edge.i ], [ false, %_ZN4absl18debugging_internal12_GLOBAL__N_116RustSymbolParser3EatEc.exit.preheader.i ], [ true, %_ZN4absl18debugging_internal12_GLOBAL__N_116RustSymbolParser3EatEc.exit.sink.split ]
  ret i1 %.0
}